target datalayout = "e-m:e-p270:32:32-p271:32:32-p272:64:64-i64:64-i128:128-f80:128-n8:16:32:64-S128"
target triple = "x86_64-pc-linux-gnu"

@hf_usb_com_get_ntb_input_size_ntb_in_max_size = internal global i32 0, align 4
@hf_usb_com_get_ntb_input_size_ntb_in_max_datagrams = internal global i32 0, align 4
@hf_usb_com_get_ntb_input_size_reserved = internal global i32 0, align 4
@hf_usb_com_set_ntb_input_size_ntb_in_max_size = internal global i32 0, align 4
@hf_usb_com_set_ntb_input_size_ntb_in_max_datagrams = internal global i32 0, align 4
@hf_usb_com_set_ntb_input_size_reserved = internal global i32 0, align 4

; Function Attrs: null_pointer_is_valid sspstrong uwtable
define internal i32 @dissect_usb_com_ntb_input_size(ptr noundef %0, ptr noundef %1, i32 noundef %2, i1 noundef zeroext %3) #1 {
  %5 = alloca ptr, align 8
  %6 = alloca ptr, align 8
  %7 = alloca i32, align 4
  %8 = alloca i8, align 1
  %9 = alloca i32, align 4
  store ptr %0, ptr %5, align 8
  store ptr %1, ptr %6, align 8
  store i32 %2, ptr %7, align 4
  %10 = zext i1 %3 to i8
  store i8 %10, ptr %8, align 1
  call void @llvm.lifetime.start.p0(i64 4, ptr %9) #13
  %11 = load i32, ptr %7, align 4
  store i32 %11, ptr %9, align 4
  %12 = load ptr, ptr %6, align 8
  %13 = load i8, ptr %8, align 1, !range !8, !noundef !9
  %14 = trunc i8 %13 to i1
  br i1 %14, label %15, label %17

15:                                               ; preds = %4
  %16 = load i32, ptr @hf_usb_com_set_ntb_input_size_ntb_in_max_size, align 4
  br label %19

17:                                               ; preds = %4
  %18 = load i32, ptr @hf_usb_com_get_ntb_input_size_ntb_in_max_size, align 4
  br label %19

19:                                               ; preds = %17, %15
  %20 = phi i32 [ %16, %15 ], [ %18, %17 ]
  %21 = load ptr, ptr %5, align 8
  %22 = load i32, ptr %9, align 4
  %23 = call ptr @proto_tree_add_item(ptr noundef %12, i32 noundef %20, ptr noundef %21, i32 noundef %22, i32 noundef 4, i32 noundef -2147483648)
  %24 = load i32, ptr %9, align 4
  %25 = add i32 %24, 4
  store i32 %25, ptr %9, align 4
  %26 = load ptr, ptr %5, align 8
  %27 = load i32, ptr %9, align 4
  %28 = call i32 @tvb_reported_length_remaining(ptr noundef %26, i32 noundef %27)
  %29 = icmp sgt i32 %28, 0
  br i1 %29, label %30, label %59

30:                                               ; preds = %19
  %31 = load ptr, ptr %6, align 8
  %32 = load i8, ptr %8, align 1, !range !8, !noundef !9
  %33 = trunc i8 %32 to i1
  br i1 %33, label %34, label %36

34:                                               ; preds = %30
  %35 = load i32, ptr @hf_usb_com_set_ntb_input_size_ntb_in_max_datagrams, align 4
  br label %38

36:                                               ; preds = %30
  %37 = load i32, ptr @hf_usb_com_get_ntb_input_size_ntb_in_max_datagrams, align 4
  br label %38

38:                                               ; preds = %36, %34
  %39 = phi i32 [ %35, %34 ], [ %37, %36 ]
  %40 = load ptr, ptr %5, align 8
  %41 = load i32, ptr %9, align 4
  %42 = call ptr @proto_tree_add_item(ptr noundef %31, i32 noundef %39, ptr noundef %40, i32 noundef %41, i32 noundef 2, i32 noundef -2147483648)
  %43 = load i32, ptr %9, align 4
  %44 = add i32 %43, 2
  store i32 %44, ptr %9, align 4
  %45 = load ptr, ptr %6, align 8
  %46 = load i8, ptr %8, align 1, !range !8, !noundef !9
  %47 = trunc i8 %46 to i1
  br i1 %47, label %48, label %50

48:                                               ; preds = %38
  %49 = load i32, ptr @hf_usb_com_set_ntb_input_size_reserved, align 4
  br label %52

50:                                               ; preds = %38
  %51 = load i32, ptr @hf_usb_com_get_ntb_input_size_reserved, align 4
  br label %52

52:                                               ; preds = %50, %48
  %53 = phi i32 [ %49, %48 ], [ %51, %50 ]
  %54 = load ptr, ptr %5, align 8
  %55 = load i32, ptr %9, align 4
  %56 = call ptr @proto_tree_add_item(ptr noundef %45, i32 noundef %53, ptr noundef %54, i32 noundef %55, i32 noundef 2, i32 noundef -2147483648)
  %57 = load i32, ptr %9, align 4
  %58 = add i32 %57, 2
  store i32 %58, ptr %9, align 4
  br label %59

59:                                               ; preds = %52, %19
  %60 = load i32, ptr %9, align 4
  call void @llvm.lifetime.end.p0(i64 4, ptr %9) #13
  ret i32 %60
}