; Function Attrs: null_pointer_is_valid sspstrong uwtable
define internal fastcc range(i32 4, 16) i32 @dissect_usb_com_ntb_input_size(ptr noundef %0, ptr noundef %1, i32 noundef range(i32 0, 8) %2, i1 noundef zeroext %3) unnamed_addr #1 {
  %5 = load i32, ptr @hf_usb_com_set_ntb_input_size_ntb_in_max_size, align 4
  %6 = load i32, ptr @hf_usb_com_get_ntb_input_size_ntb_in_max_size, align 4
  %7 = select i1 %3, i32 %5, i32 %6
  %8 = tail call ptr @proto_tree_add_item(ptr noundef %1, i32 noundef %7, ptr noundef %0, i32 noundef %2, i32 noundef 4, i32 noundef -2147483648)
  %9 = add nuw nsw i32 %2, 4
  %10 = tail call i32 @tvb_reported_length_remaining(ptr noundef %0, i32 noundef %9)
  %11 = icmp sgt i32 %10, 0
  br i1 %11, label %12, label %23

12:                                               ; preds = %4
  %13 = load i32, ptr @hf_usb_com_set_ntb_input_size_ntb_in_max_datagrams, align 4
  %14 = load i32, ptr @hf_usb_com_get_ntb_input_size_ntb_in_max_datagrams, align 4
  %15 = select i1 %3, i32 %13, i32 %14
  %16 = tail call ptr @proto_tree_add_item(ptr noundef %1, i32 noundef %15, ptr noundef %0, i32 noundef %9, i32 noundef 2, i32 noundef -2147483648)
  %17 = add nuw nsw i32 %2, 6
  %18 = load i32, ptr @hf_usb_com_set_ntb_input_size_reserved, align 4
  %19 = load i32, ptr @hf_usb_com_get_ntb_input_size_reserved, align 4
  %20 = select i1 %3, i32 %18, i32 %19
  %21 = tail call ptr @proto_tree_add_item(ptr noundef %1, i32 noundef %20, ptr noundef %0, i32 noundef %17, i32 noundef 2, i32 noundef -2147483648)
  %22 = or disjoint i32 %2, 8
  br label %23

23:                                               ; preds = %12, %4
  %.0 = phi i32 [ %22, %12 ], [ %9, %4 ]
  ret i32 %.0
}